target datalayout = "e-m:e-p270:32:32-p271:32:32-p272:64:64-i64:64-i128:128-f80:128-n8:16:32:64-S128"
target triple = "x86_64-pc-linux-gnu"

@dsp_option_dissectors = internal global ptr null, align 8
@hf_2008_1_dsp_attribute_code = internal global i32 0, align 4
@hf_2008_1_dsp_attribute_data = internal global i32 0, align 4
@hf_2008_1_dsp_value_length = internal global i32 0, align 4
@hf_2008_1_dsp_value_data = internal global i32 0, align 4
@.str.748 = private unnamed_addr constant [23 x i8] c" (Code=%s/Data=0x%04x)\00", align 1
@.str.749 = private unnamed_addr constant [3 x i8] c"%u\00", align 1

; Function Attrs: null_pointer_is_valid sspstrong uwtable
define internal i32 @dissect_2008_1_dsp_1(ptr noundef %0, ptr noundef %1, ptr noundef %2) #0 {
  %4 = alloca ptr, align 8
  %5 = alloca ptr, align 8
  %6 = alloca ptr, align 8
  %7 = alloca ptr, align 8
  %8 = alloca i8, align 1
  %9 = alloca i16, align 2
  %10 = alloca i8, align 1
  store ptr %0, ptr %4, align 8
  store ptr %1, ptr %5, align 8
  store ptr %2, ptr %6, align 8
  call void @llvm.lifetime.start.p0(i64 8, ptr %7) #19
  %11 = load ptr, ptr %6, align 8
  %12 = call ptr @proto_tree_get_parent(ptr noundef %11)
  store ptr %12, ptr %7, align 8
  call void @llvm.lifetime.start.p0(i64 1, ptr %8) #19
  %13 = load ptr, ptr %4, align 8
  %14 = call zeroext i8 @tvb_get_uint8(ptr noundef %13, i32 noundef 0)
  store i8 %14, ptr %8, align 1
  call void @llvm.lifetime.start.p0(i64 2, ptr %9) #19
  %15 = load ptr, ptr %4, align 8
  %16 = call zeroext i16 @tvb_get_ntohs(ptr noundef %15, i32 noundef 1)
  store i16 %16, ptr %9, align 2
  call void @llvm.lifetime.start.p0(i64 1, ptr %10) #19
  %17 = load ptr, ptr %4, align 8
  %18 = call zeroext i8 @tvb_get_uint8(ptr noundef %17, i32 noundef 3)
  store i8 %18, ptr %10, align 1
  %19 = load ptr, ptr %6, align 8
  %20 = load i32, ptr @hf_2008_1_dsp_attribute_code, align 4
  %21 = load ptr, ptr %4, align 8
  %22 = call ptr @proto_tree_add_item(ptr noundef %19, i32 noundef %20, ptr noundef %21, i32 noundef 0, i32 noundef 1, i32 noundef 0)
  %23 = load ptr, ptr %6, align 8
  %24 = load i32, ptr @hf_2008_1_dsp_attribute_data, align 4
  %25 = load ptr, ptr %4, align 8
  %26 = call ptr @proto_tree_add_item(ptr noundef %23, i32 noundef %24, ptr noundef %25, i32 noundef 1, i32 noundef 2, i32 noundef 0)
  %27 = load ptr, ptr %6, align 8
  %28 = load i32, ptr @hf_2008_1_dsp_value_length, align 4
  %29 = load ptr, ptr %4, align 8
  %30 = call ptr @proto_tree_add_item(ptr noundef %27, i32 noundef %28, ptr noundef %29, i32 noundef 3, i32 noundef 1, i32 noundef 0)
  %31 = load ptr, ptr %7, align 8
  %32 = load i8, ptr %8, align 1
  %33 = zext i8 %32 to i32
  %34 = call ptr @val_to_str(i32 noundef %33, ptr noundef @strings_2008_1_dsp_attribute_codes, ptr noundef @.str.749)
  %35 = load i16, ptr %9, align 2
  %36 = zext i16 %35 to i32
  call void (ptr, ptr, ...) @proto_item_append_text(ptr noundef %31, ptr noundef @.str.748, ptr noundef %34, i32 noundef %36)
  %37 = load i8, ptr %10, align 1
  %38 = icmp ne i8 %37, 0
  br i1 %38, label %39, label %61

39:                                               ; preds = %3
  %40 = load ptr, ptr %6, align 8
  %41 = load i32, ptr @hf_2008_1_dsp_value_data, align 4
  %42 = load ptr, ptr %4, align 8
  %43 = load i8, ptr %10, align 1
  %44 = zext i8 %43 to i32
  %45 = call ptr @proto_tree_add_item(ptr noundef %40, i32 noundef %41, ptr noundef %42, i32 noundef 4, i32 noundef %44, i32 noundef 0)
  %46 = load ptr, ptr %4, align 8
  %47 = load i8, ptr %10, align 1
  %48 = zext i8 %47 to i32
  %49 = add i32 %48, 4
  call void @tvb_set_reported_length(ptr noundef %46, i32 noundef %49)
  %50 = load ptr, ptr @dsp_option_dissectors, align 8
  %51 = load i8, ptr %8, align 1
  %52 = zext i8 %51 to i32
  %53 = shl i32 %52, 16
  %54 = load i16, ptr %9, align 2
  %55 = zext i16 %54 to i32
  %56 = or i32 %53, %55
  %57 = load ptr, ptr %4, align 8
  %58 = load ptr, ptr %5, align 8
  %59 = load ptr, ptr %6, align 8
  %60 = call i32 @dissector_try_uint(ptr noundef %50, i32 noundef %56, ptr noundef %57, ptr noundef %58, ptr noundef %59)
  br label %61

61:                                               ; preds = %39, %3
  %62 = load i8, ptr %10, align 1
  %63 = zext i8 %62 to i32
  %64 = add i32 %63, 4
  call void @llvm.lifetime.end.p0(i64 1, ptr %10) #19
  call void @llvm.lifetime.end.p0(i64 2, ptr %9) #19
  call void @llvm.lifetime.end.p0(i64 1, ptr %8) #19
  call void @llvm.lifetime.end.p0(i64 8, ptr %7) #19
  ret i32 %64
}