; Function Attrs: null_pointer_is_valid sspstrong uwtable
define internal fastcc range(i32 4, 260) i32 @dissect_2008_1_dsp_1(ptr noundef %0, ptr noundef %1, ptr noundef %2) unnamed_addr #0 {
  %4 = tail call ptr @proto_tree_get_parent(ptr noundef %2)
  %5 = tail call zeroext i8 @tvb_get_uint8(ptr noundef %0, i32 noundef 0)
  %6 = tail call zeroext i16 @tvb_get_ntohs(ptr noundef %0, i32 noundef 1)
  %7 = tail call zeroext i8 @tvb_get_uint8(ptr noundef %0, i32 noundef 3)
  %8 = load i32, ptr @hf_2008_1_dsp_attribute_code, align 4
  %9 = tail call ptr @proto_tree_add_item(ptr noundef %2, i32 noundef %8, ptr noundef %0, i32 noundef 0, i32 noundef 1, i32 noundef 0)
  %10 = load i32, ptr @hf_2008_1_dsp_attribute_data, align 4
  %11 = tail call ptr @proto_tree_add_item(ptr noundef %2, i32 noundef %10, ptr noundef %0, i32 noundef 1, i32 noundef 2, i32 noundef 0)
  %12 = load i32, ptr @hf_2008_1_dsp_value_length, align 4
  %13 = tail call ptr @proto_tree_add_item(ptr noundef %2, i32 noundef %12, ptr noundef %0, i32 noundef 3, i32 noundef 1, i32 noundef 0)
  %14 = zext i8 %5 to i32
  %15 = tail call ptr @val_to_str(i32 noundef %14, ptr noundef nonnull @strings_2008_1_dsp_attribute_codes, ptr noundef nonnull @.str.749)
  %16 = zext i16 %6 to i32
  tail call void (ptr, ptr, ...) @proto_item_append_text(ptr noundef %4, ptr noundef nonnull @.str.748, ptr noundef %15, i32 noundef %16)
  %.not = icmp eq i8 %7, 0
  br i1 %.not, label %._crit_edge, label %17

17:                                               ; preds = %3
  %18 = load i32, ptr @hf_2008_1_dsp_value_data, align 4
  %19 = zext i8 %7 to i32
  %20 = tail call ptr @proto_tree_add_item(ptr noundef %2, i32 noundef %18, ptr noundef %0, i32 noundef 4, i32 noundef %19, i32 noundef 0)
  %21 = add nuw nsw i32 %19, 4
  tail call void @tvb_set_reported_length(ptr noundef %0, i32 noundef %21)
  %22 = load ptr, ptr @dsp_option_dissectors, align 8
  %23 = shl nuw nsw i32 %14, 16
  %24 = or disjoint i32 %23, %16
  %25 = tail call i32 @dissector_try_uint(ptr noundef %22, i32 noundef %24, ptr noundef %0, ptr noundef %1, ptr noundef %2)
  br label %._crit_edge

._crit_edge:                                      ; preds = %3, %17
  %.pre-phi25 = phi i32 [ %21, %17 ], [ 4, %3 ]
  ret i32 %.pre-phi25
}